; Function Attrs: mustprogress uwtable
define void @_ZN2cv4gapi4flipERKNS_4GMatEi(ptr dead_on_unwind noalias writable sret(%"class.cv::GMat") align 8 %0, ptr noundef nonnull readonly align 8 captures(none) dereferenceable(16) %1, i32 noundef %2) local_unnamed_addr #3 personality ptr @__gxx_personality_v0 {
  %4 = alloca %"class.cv::GMat", align 8
  %5 = load ptr, ptr %1, align 8, !tbaa !3
  store ptr %5, ptr %4, align 8, !tbaa !3
  %6 = getelementptr inbounds nuw i8, ptr %4, i64 8
  %7 = getelementptr inbounds nuw i8, ptr %1, i64 8
  %8 = load ptr, ptr %7, align 8, !tbaa !11
  store ptr %8, ptr %6, align 8, !tbaa !11
  %.not.i.i.i.i = icmp eq ptr %8, null
  br i1 %.not.i.i.i.i, label %_ZN2cv4GMatC2ERKS0_.exit, label %9

9:                                                ; preds = %3
  %10 = getelementptr inbounds nuw i8, ptr %8, i64 8
  %11 = load i8, ptr @__libc_single_threaded, align 1, !tbaa !12
  %.not.i.i.i.i.i = icmp eq i8 %11, 0
  br i1 %.not.i.i.i.i.i, label %15, label %12

12:                                               ; preds = %9
  %13 = load i32, ptr %10, align 4, !tbaa !13
  %14 = add nsw i32 %13, 1
  store i32 %14, ptr %10, align 4, !tbaa !13
  br label %_ZN2cv4GMatC2ERKS0_.exit

15:                                               ; preds = %9
  %16 = atomicrmw volatile add ptr %10, i32 1 acq_rel, align 4
  br label %_ZN2cv4GMatC2ERKS0_.exit

_ZN2cv4GMatC2ERKS0_.exit:                         ; preds = %3, %12, %15
  invoke void @_ZN2cv11GKernelTypeINS_4gapi4core5GFlipESt8functionIFNS_4GMatES5_iEEE2onES5_i(ptr dead_on_unwind writable sret(%"class.cv::GMat") align 8 %0, ptr noundef nonnull %4, i32 noundef %2)
          to label %17 unwind label %40

17:                                               ; preds = %_ZN2cv4GMatC2ERKS0_.exit
  %18 = load ptr, ptr %6, align 8, !tbaa !11
  %.not.i.i.i = icmp eq ptr %18, null
  br i1 %.not.i.i.i, label %_ZN2cv4GMatD2Ev.exit, label %19

19:                                               ; preds = %17
  %20 = getelementptr inbounds nuw i8, ptr %18, i64 8
  %21 = load atomic i64, ptr %20 acquire, align 8
  %22 = icmp eq i64 %21, 4294967297
  %23 = trunc i64 %21 to i32
  br i1 %22, label %24, label %32

24:                                               ; preds = %19
  store i32 0, ptr %20, align 8, !tbaa !15
  %25 = getelementptr inbounds nuw i8, ptr %18, i64 12
  store i32 0, ptr %25, align 4, !tbaa !17
  %26 = load ptr, ptr %18, align 8, !tbaa !18
  %27 = getelementptr inbounds nuw i8, ptr %26, i64 16
  %28 = load ptr, ptr %27, align 8
  call void %28(ptr noundef nonnull align 8 dereferenceable(16) %18) #23
  %29 = load ptr, ptr %18, align 8, !tbaa !18
  %30 = getelementptr inbounds nuw i8, ptr %29, i64 24
  %31 = load ptr, ptr %30, align 8
  call void %31(ptr noundef nonnull align 8 dereferenceable(16) %18) #23
  br label %_ZN2cv4GMatD2Ev.exit

32:                                               ; preds = %19
  %33 = load i8, ptr @__libc_single_threaded, align 1, !tbaa !12
  %.not.i.i.i.i3 = icmp eq i8 %33, 0
  br i1 %.not.i.i.i.i3, label %36, label %34

34:                                               ; preds = %32
  %35 = add nsw i32 %23, -1
  store i32 %35, ptr %20, align 4, !tbaa !13
  br label %_ZN9__gnu_cxx27__exchange_and_add_dispatchEPii.exit.i.i.i.i

36:                                               ; preds = %32
  %37 = atomicrmw volatile add ptr %20, i32 -1 acq_rel, align 4
  br label %_ZN9__gnu_cxx27__exchange_and_add_dispatchEPii.exit.i.i.i.i

_ZN9__gnu_cxx27__exchange_and_add_dispatchEPii.exit.i.i.i.i: ; preds = %36, %34
  %.0.i.i.i.i.i = phi i32 [ %23, %34 ], [ %37, %36 ]
  %38 = icmp eq i32 %.0.i.i.i.i.i, 1
  br i1 %38, label %39, label %_ZN2cv4GMatD2Ev.exit, !prof !20

39:                                               ; preds = %_ZN9__gnu_cxx27__exchange_and_add_dispatchEPii.exit.i.i.i.i
  call void @_ZNSt16_Sp_counted_baseILN9__gnu_cxx12_Lock_policyE2EE24_M_release_last_use_coldEv(ptr noundef nonnull align 8 dereferenceable(16) %18) #23
  br label %_ZN2cv4GMatD2Ev.exit

_ZN2cv4GMatD2Ev.exit:                             ; preds = %17, %24, %_ZN9__gnu_cxx27__exchange_and_add_dispatchEPii.exit.i.i.i.i, %39
  ret void

40:                                               ; preds = %_ZN2cv4GMatC2ERKS0_.exit
  %41 = landingpad { ptr, i32 }
          cleanup
  call void @_ZN2cv4GMatD2Ev(ptr noundef nonnull align 8 dereferenceable(16) %4) #23
  resume { ptr, i32 } %41
}